	.file	"MatrixMultiply.cpp"
	.section	.text._ZN5boost7numeric5ublas8bad_sizeD2Ev,"axG",@progbits,_ZN5boost7numeric5ublas8bad_sizeD5Ev,comdat
	.align 2
	.p2align 4,,15
	.weak	_ZN5boost7numeric5ublas8bad_sizeD2Ev
	.type	_ZN5boost7numeric5ublas8bad_sizeD2Ev, @function
_ZN5boost7numeric5ublas8bad_sizeD2Ev:
.LFB5523:
	.cfi_startproc
	movq	$_ZTVN5boost7numeric5ublas8bad_sizeE+16, (%rdi)
	jmp	_ZNSt12domain_errorD2Ev
	.cfi_endproc
.LFE5523:
	.size	_ZN5boost7numeric5ublas8bad_sizeD2Ev, .-_ZN5boost7numeric5ublas8bad_sizeD2Ev
	.weak	_ZN5boost7numeric5ublas8bad_sizeD1Ev
	.set	_ZN5boost7numeric5ublas8bad_sizeD1Ev,_ZN5boost7numeric5ublas8bad_sizeD2Ev
	.section	.text._ZN5boost7numeric5ublas8bad_sizeD0Ev,"axG",@progbits,_ZN5boost7numeric5ublas8bad_sizeD0Ev,comdat
	.align 2
	.p2align 4,,15
	.weak	_ZN5boost7numeric5ublas8bad_sizeD0Ev
	.type	_ZN5boost7numeric5ublas8bad_sizeD0Ev, @function
_ZN5boost7numeric5ublas8bad_sizeD0Ev:
.LFB5525:
	.cfi_startproc
	pushq	%rbx
	.cfi_def_cfa_offset 16
	.cfi_offset 3, -16
	movq	%rdi, %rbx
	movq	$_ZTVN5boost7numeric5ublas8bad_sizeE+16, (%rdi)
	call	_ZNSt12domain_errorD2Ev
	movq	%rbx, %rdi
	popq	%rbx
	.cfi_def_cfa_offset 8
	jmp	_ZdlPv
	.cfi_endproc
.LFE5525:
	.size	_ZN5boost7numeric5ublas8bad_sizeD0Ev, .-_ZN5boost7numeric5ublas8bad_sizeD0Ev
	.section	.text._ZN5boost7numeric5ublas9bad_indexD2Ev,"axG",@progbits,_ZN5boost7numeric5ublas9bad_indexD5Ev,comdat
	.align 2
	.p2align 4,,15
	.weak	_ZN5boost7numeric5ublas9bad_indexD2Ev
	.type	_ZN5boost7numeric5ublas9bad_indexD2Ev, @function
_ZN5boost7numeric5ublas9bad_indexD2Ev:
.LFB5519:
	.cfi_startproc
	movq	$_ZTVN5boost7numeric5ublas9bad_indexE+16, (%rdi)
	jmp	_ZNSt12out_of_rangeD2Ev
	.cfi_endproc
.LFE5519:
	.size	_ZN5boost7numeric5ublas9bad_indexD2Ev, .-_ZN5boost7numeric5ublas9bad_indexD2Ev
	.weak	_ZN5boost7numeric5ublas9bad_indexD1Ev
	.set	_ZN5boost7numeric5ublas9bad_indexD1Ev,_ZN5boost7numeric5ublas9bad_indexD2Ev
	.section	.text._ZN5boost7numeric5ublas9bad_indexD0Ev,"axG",@progbits,_ZN5boost7numeric5ublas9bad_indexD0Ev,comdat
	.align 2
	.p2align 4,,15
	.weak	_ZN5boost7numeric5ublas9bad_indexD0Ev
	.type	_ZN5boost7numeric5ublas9bad_indexD0Ev, @function
_ZN5boost7numeric5ublas9bad_indexD0Ev:
.LFB5521:
	.cfi_startproc
	pushq	%rbx
	.cfi_def_cfa_offset 16
	.cfi_offset 3, -16
	movq	%rdi, %rbx
	movq	$_ZTVN5boost7numeric5ublas9bad_indexE+16, (%rdi)
	call	_ZNSt12out_of_rangeD2Ev
	movq	%rbx, %rdi
	popq	%rbx
	.cfi_def_cfa_offset 8
	jmp	_ZdlPv
	.cfi_endproc
.LFE5521:
	.size	_ZN5boost7numeric5ublas9bad_indexD0Ev, .-_ZN5boost7numeric5ublas9bad_indexD0Ev
	.section	.text._ZN5boost7numeric5ublas12bad_argumentD2Ev,"axG",@progbits,_ZN5boost7numeric5ublas12bad_argumentD5Ev,comdat
	.align 2
	.p2align 4,,15
	.weak	_ZN5boost7numeric5ublas12bad_argumentD2Ev
	.type	_ZN5boost7numeric5ublas12bad_argumentD2Ev, @function
_ZN5boost7numeric5ublas12bad_argumentD2Ev:
.LFB5527:
	.cfi_startproc
	movq	$_ZTVN5boost7numeric5ublas12bad_argumentE+16, (%rdi)
	jmp	_ZNSt16invalid_argumentD2Ev
	.cfi_endproc
.LFE5527:
	.size	_ZN5boost7numeric5ublas12bad_argumentD2Ev, .-_ZN5boost7numeric5ublas12bad_argumentD2Ev
	.weak	_ZN5boost7numeric5ublas12bad_argumentD1Ev
	.set	_ZN5boost7numeric5ublas12bad_argumentD1Ev,_ZN5boost7numeric5ublas12bad_argumentD2Ev
	.section	.text._ZN5boost7numeric5ublas12bad_argumentD0Ev,"axG",@progbits,_ZN5boost7numeric5ublas12bad_argumentD0Ev,comdat
	.align 2
	.p2align 4,,15
	.weak	_ZN5boost7numeric5ublas12bad_argumentD0Ev
	.type	_ZN5boost7numeric5ublas12bad_argumentD0Ev, @function
_ZN5boost7numeric5ublas12bad_argumentD0Ev:
.LFB5529:
	.cfi_startproc
	pushq	%rbx
	.cfi_def_cfa_offset 16
	.cfi_offset 3, -16
	movq	%rdi, %rbx
	movq	$_ZTVN5boost7numeric5ublas12bad_argumentE+16, (%rdi)
	call	_ZNSt16invalid_argumentD2Ev
	movq	%rbx, %rdi
	popq	%rbx
	.cfi_def_cfa_offset 8
	jmp	_ZdlPv
	.cfi_endproc
.LFE5529:
	.size	_ZN5boost7numeric5ublas12bad_argumentD0Ev, .-_ZN5boost7numeric5ublas12bad_argumentD0Ev
	.section	.text._ZNSt11logic_errorC2ERKS_,"axG",@progbits,_ZNSt11logic_errorC5ERKS_,comdat
	.align 2
	.p2align 4,,15
	.weak	_ZNSt11logic_errorC2ERKS_
	.type	_ZNSt11logic_errorC2ERKS_, @function
_ZNSt11logic_errorC2ERKS_:
.LFB1787:
	.cfi_startproc
	.cfi_personality 0x3,__gxx_personality_v0
	.cfi_lsda 0x3,.LLSDA1787
	pushq	%rbp
	.cfi_def_cfa_offset 16
	.cfi_offset 6, -16
	addq	$8, %rsi
	pushq	%rbx
	.cfi_def_cfa_offset 24
	.cfi_offset 3, -24
	movq	%rdi, %rbx
	leaq	8(%rdi), %rdi
	subq	$8, %rsp
	.cfi_def_cfa_offset 32
	movq	$_ZTVSt11logic_error+16, -8(%rdi)
.LEHB0:
	call	_ZNSsC1ERKSs
.LEHE0:
	addq	$8, %rsp
	.cfi_remember_state
	.cfi_def_cfa_offset 24
	popq	%rbx
	.cfi_def_cfa_offset 16
	popq	%rbp
	.cfi_def_cfa_offset 8
	ret
.L12:
	.cfi_restore_state
	movq	%rax, %rbp
	movq	%rbx, %rdi
	call	_ZNSt9exceptionD2Ev
	movq	%rbp, %rdi
.LEHB1:
	call	_Unwind_Resume
.LEHE1:
	.cfi_endproc
.LFE1787:
	.globl	__gxx_personality_v0
	.section	.gcc_except_table._ZNSt11logic_errorC2ERKS_,"aG",@progbits,_ZNSt11logic_errorC5ERKS_,comdat
.LLSDA1787:
	.byte	0xff
	.byte	0xff
	.byte	0x1
	.uleb128 .LLSDACSE1787-.LLSDACSB1787
.LLSDACSB1787:
	.uleb128 .LEHB0-.LFB1787
	.uleb128 .LEHE0-.LEHB0
	.uleb128 .L12-.LFB1787
	.uleb128 0
	.uleb128 .LEHB1-.LFB1787
	.uleb128 .LEHE1-.LEHB1
	.uleb128 0
	.uleb128 0
.LLSDACSE1787:
	.section	.text._ZNSt11logic_errorC2ERKS_,"axG",@progbits,_ZNSt11logic_errorC5ERKS_,comdat
	.size	_ZNSt11logic_errorC2ERKS_, .-_ZNSt11logic_errorC2ERKS_
	.weak	_ZNSt11logic_errorC1ERKS_
	.set	_ZNSt11logic_errorC1ERKS_,_ZNSt11logic_errorC2ERKS_
	.section	.text._ZN5boost7numeric5ublas12bad_argumentC2EPKc,"axG",@progbits,_ZN5boost7numeric5ublas12bad_argumentC5EPKc,comdat
	.align 2
	.p2align 4,,15
	.weak	_ZN5boost7numeric5ublas12bad_argumentC2EPKc
	.type	_ZN5boost7numeric5ublas12bad_argumentC2EPKc, @function
_ZN5boost7numeric5ublas12bad_argumentC2EPKc:
.LFB1799:
	.cfi_startproc
	.cfi_personality 0x3,__gxx_personality_v0
	.cfi_lsda 0x3,.LLSDA1799
	pushq	%rbx
	.cfi_def_cfa_offset 16
	.cfi_offset 3, -16
	movq	%rdi, %rbx
	subq	$32, %rsp
	.cfi_def_cfa_offset 48
	leaq	16(%rsp), %rdi
	leaq	14(%rsp), %rdx
.LEHB2:
	call	_ZNSsC1EPKcRKSaIcE
.LEHE2:
	leaq	16(%rsp), %rsi
	movq	%rbx, %rdi
.LEHB3:
	call	_ZNSt16invalid_argumentC2ERKSs
.LEHE3:
	movq	16(%rsp), %rax
	leaq	-24(%rax), %rdi
	cmpq	$_ZNSs4_Rep20_S_empty_rep_storageE, %rdi
	jne	.L26
.L18:
	movq	$_ZTVN5boost7numeric5ublas12bad_argumentE+16, (%rbx)
	addq	$32, %rsp
	.cfi_remember_state
	.cfi_def_cfa_offset 16
	popq	%rbx
	.cfi_def_cfa_offset 8
	ret
.L26:
	.cfi_restore_state
	movl	$_ZL28__gthrw___pthread_key_createPjPFvPvE, %ecx
	leaq	16(%rdi), %rdx
	testq	%rcx, %rcx
	je	.L19
	orl	$-1, %r9d
	lock xaddl	%r9d, (%rdx)
.L20:
	testl	%r9d, %r9d
	jg	.L18
	leaq	15(%rsp), %rsi
	call	_ZNSs4_Rep10_M_destroyERKSaIcE
	jmp	.L18
.L23:
	movq	16(%rsp), %rdi
	leaq	15(%rsp), %rsi
	movq	%rax, %rbx
	leaq	-24(%rdi), %rdi
	call	_ZNSs4_Rep10_M_disposeERKSaIcE
	movq	%rbx, %rdi
.LEHB4:
	call	_Unwind_Resume
.LEHE4:
.L19:
	movl	-8(%rax), %esi
	leal	-1(%rsi), %r8d
	movl	%esi, %r9d
	movl	%r8d, -8(%rax)
	jmp	.L20
	.cfi_endproc
.LFE1799:
	.section	.gcc_except_table._ZN5boost7numeric5ublas12bad_argumentC2EPKc,"aG",@progbits,_ZN5boost7numeric5ublas12bad_argumentC5EPKc,comdat
.LLSDA1799:
	.byte	0xff
	.byte	0xff
	.byte	0x1
	.uleb128 .LLSDACSE1799-.LLSDACSB1799
.LLSDACSB1799:
	.uleb128 .LEHB2-.LFB1799
	.uleb128 .LEHE2-.LEHB2
	.uleb128 0
	.uleb128 0
	.uleb128 .LEHB3-.LFB1799
	.uleb128 .LEHE3-.LEHB3
	.uleb128 .L23-.LFB1799
	.uleb128 0
	.uleb128 .LEHB4-.LFB1799
	.uleb128 .LEHE4-.LEHB4
	.uleb128 0
	.uleb128 0
.LLSDACSE1799:
	.section	.text._ZN5boost7numeric5ublas12bad_argumentC2EPKc,"axG",@progbits,_ZN5boost7numeric5ublas12bad_argumentC5EPKc,comdat
	.size	_ZN5boost7numeric5ublas12bad_argumentC2EPKc, .-_ZN5boost7numeric5ublas12bad_argumentC2EPKc
	.weak	_ZN5boost7numeric5ublas12bad_argumentC1EPKc
	.set	_ZN5boost7numeric5ublas12bad_argumentC1EPKc,_ZN5boost7numeric5ublas12bad_argumentC2EPKc
	.section	.text._ZN5boost7numeric5ublas12bad_argument5raiseEv,"axG",@progbits,_ZN5boost7numeric5ublas12bad_argument5raiseEv,comdat
	.align 2
	.p2align 4,,15
	.weak	_ZN5boost7numeric5ublas12bad_argument5raiseEv
	.type	_ZN5boost7numeric5ublas12bad_argument5raiseEv, @function
_ZN5boost7numeric5ublas12bad_argument5raiseEv:
.LFB1801:
	.cfi_startproc
	.cfi_personality 0x3,__gxx_personality_v0
	.cfi_lsda 0x3,.LLSDA1801
	pushq	%rbp
	.cfi_def_cfa_offset 16
	.cfi_offset 6, -16
	movq	%rdi, %rbp
	movl	$16, %edi
	pushq	%rbx
	.cfi_def_cfa_offset 24
	.cfi_offset 3, -24
	subq	$8, %rsp
	.cfi_def_cfa_offset 32
	call	__cxa_allocate_exception
	movq	%rbp, %rsi
	movq	%rax, %rdi
	movq	%rax, %rbx
.LEHB5:
	call	_ZNSt11logic_errorC2ERKS_
.LEHE5:
	movq	$_ZTVN5boost7numeric5ublas12bad_argumentE+16, (%rbx)
	movl	$_ZN5boost7numeric5ublas12bad_argumentD1Ev, %edx
	movl	$_ZTIN5boost7numeric5ublas12bad_argumentE, %esi
	movq	%rbx, %rdi
.LEHB6:
	call	__cxa_throw
.L29:
	movq	%rax, %rbp
	movq	%rbx, %rdi
	call	__cxa_free_exception
	movq	%rbp, %rdi
	call	_Unwind_Resume
.LEHE6:
	.cfi_endproc
.LFE1801:
	.section	.gcc_except_table._ZN5boost7numeric5ublas12bad_argument5raiseEv,"aG",@progbits,_ZN5boost7numeric5ublas12bad_argument5raiseEv,comdat
.LLSDA1801:
	.byte	0xff
	.byte	0xff
	.byte	0x1
	.uleb128 .LLSDACSE1801-.LLSDACSB1801
.LLSDACSB1801:
	.uleb128 .LEHB5-.LFB1801
	.uleb128 .LEHE5-.LEHB5
	.uleb128 .L29-.LFB1801
	.uleb128 0
	.uleb128 .LEHB6-.LFB1801
	.uleb128 .LEHE6-.LEHB6
	.uleb128 0
	.uleb128 0
.LLSDACSE1801:
	.section	.text._ZN5boost7numeric5ublas12bad_argument5raiseEv,"axG",@progbits,_ZN5boost7numeric5ublas12bad_argument5raiseEv,comdat
	.size	_ZN5boost7numeric5ublas12bad_argument5raiseEv, .-_ZN5boost7numeric5ublas12bad_argument5raiseEv
	.section	.text._ZN5boost7numeric5ublas8bad_sizeC2EPKc,"axG",@progbits,_ZN5boost7numeric5ublas8bad_sizeC5EPKc,comdat
	.align 2
	.p2align 4,,15
	.weak	_ZN5boost7numeric5ublas8bad_sizeC2EPKc
	.type	_ZN5boost7numeric5ublas8bad_sizeC2EPKc, @function
_ZN5boost7numeric5ublas8bad_sizeC2EPKc:
.LFB1809:
	.cfi_startproc
	.cfi_personality 0x3,__gxx_personality_v0
	.cfi_lsda 0x3,.LLSDA1809
	pushq	%rbx
	.cfi_def_cfa_offset 16
	.cfi_offset 3, -16
	movq	%rdi, %rbx
	subq	$32, %rsp
	.cfi_def_cfa_offset 48
	leaq	16(%rsp), %rdi
	leaq	14(%rsp), %rdx
.LEHB7:
	call	_ZNSsC1EPKcRKSaIcE
.LEHE7:
	leaq	16(%rsp), %rsi
	movq	%rbx, %rdi
.LEHB8:
	call	_ZNSt12domain_errorC2ERKSs
.LEHE8:
	movq	16(%rsp), %rax
	leaq	-24(%rax), %rdi
	cmpq	$_ZNSs4_Rep20_S_empty_rep_storageE, %rdi
	jne	.L41
.L33:
	movq	$_ZTVN5boost7numeric5ublas8bad_sizeE+16, (%rbx)
	addq	$32, %rsp
	.cfi_remember_state
	.cfi_def_cfa_offset 16
	popq	%rbx
	.cfi_def_cfa_offset 8
	ret
.L41:
	.cfi_restore_state
	movl	$_ZL28__gthrw___pthread_key_createPjPFvPvE, %ecx
	leaq	16(%rdi), %rdx
	testq	%rcx, %rcx
	je	.L34
	orl	$-1, %r9d
	lock xaddl	%r9d, (%rdx)
.L35:
	testl	%r9d, %r9d
	jg	.L33
	leaq	15(%rsp), %rsi
	call	_ZNSs4_Rep10_M_destroyERKSaIcE
	jmp	.L33
.L38:
	movq	16(%rsp), %rdi
	leaq	15(%rsp), %rsi
	movq	%rax, %rbx
	leaq	-24(%rdi), %rdi
	call	_ZNSs4_Rep10_M_disposeERKSaIcE
	movq	%rbx, %rdi
.LEHB9:
	call	_Unwind_Resume
.LEHE9:
.L34:
	movl	-8(%rax), %esi
	leal	-1(%rsi), %r8d
	movl	%esi, %r9d
	movl	%r8d, -8(%rax)
	jmp	.L35
	.cfi_endproc
.LFE1809:
	.section	.gcc_except_table._ZN5boost7numeric5ublas8bad_sizeC2EPKc,"aG",@progbits,_ZN5boost7numeric5ublas8bad_sizeC5EPKc,comdat
.LLSDA1809:
	.byte	0xff
	.byte	0xff
	.byte	0x1
	.uleb128 .LLSDACSE1809-.LLSDACSB1809
.LLSDACSB1809:
	.uleb128 .LEHB7-.LFB1809
	.uleb128 .LEHE7-.LEHB7
	.uleb128 0
	.uleb128 0
	.uleb128 .LEHB8-.LFB1809
	.uleb128 .LEHE8-.LEHB8
	.uleb128 .L38-.LFB1809
	.uleb128 0
	.uleb128 .LEHB9-.LFB1809
	.uleb128 .LEHE9-.LEHB9
	.uleb128 0
	.uleb128 0
.LLSDACSE1809:
	.section	.text._ZN5boost7numeric5ublas8bad_sizeC2EPKc,"axG",@progbits,_ZN5boost7numeric5ublas8bad_sizeC5EPKc,comdat
	.size	_ZN5boost7numeric5ublas8bad_sizeC2EPKc, .-_ZN5boost7numeric5ublas8bad_sizeC2EPKc
	.weak	_ZN5boost7numeric5ublas8bad_sizeC1EPKc
	.set	_ZN5boost7numeric5ublas8bad_sizeC1EPKc,_ZN5boost7numeric5ublas8bad_sizeC2EPKc
	.section	.text._ZN5boost7numeric5ublas9bad_indexC2EPKc,"axG",@progbits,_ZN5boost7numeric5ublas9bad_indexC5EPKc,comdat
	.align 2
	.p2align 4,,15
	.weak	_ZN5boost7numeric5ublas9bad_indexC2EPKc
	.type	_ZN5boost7numeric5ublas9bad_indexC2EPKc, @function
_ZN5boost7numeric5ublas9bad_indexC2EPKc:
.LFB1819:
	.cfi_startproc
	.cfi_personality 0x3,__gxx_personality_v0
	.cfi_lsda 0x3,.LLSDA1819
	pushq	%rbx
	.cfi_def_cfa_offset 16
	.cfi_offset 3, -16
	movq	%rdi, %rbx
	subq	$32, %rsp
	.cfi_def_cfa_offset 48
	leaq	16(%rsp), %rdi
	leaq	14(%rsp), %rdx
.LEHB10:
	call	_ZNSsC1EPKcRKSaIcE
.LEHE10:
	leaq	16(%rsp), %rsi
	movq	%rbx, %rdi
.LEHB11:
	call	_ZNSt12out_of_rangeC2ERKSs
.LEHE11:
	movq	16(%rsp), %rax
	leaq	-24(%rax), %rdi
	cmpq	$_ZNSs4_Rep20_S_empty_rep_storageE, %rdi
	jne	.L52
.L44:
	movq	$_ZTVN5boost7numeric5ublas9bad_indexE+16, (%rbx)
	addq	$32, %rsp
	.cfi_remember_state
	.cfi_def_cfa_offset 16
	popq	%rbx
	.cfi_def_cfa_offset 8
	ret
.L52:
	.cfi_restore_state
	movl	$_ZL28__gthrw___pthread_key_createPjPFvPvE, %ecx
	leaq	16(%rdi), %rdx
	testq	%rcx, %rcx
	je	.L45
	orl	$-1, %r9d
	lock xaddl	%r9d, (%rdx)
.L46:
	testl	%r9d, %r9d
	jg	.L44
	leaq	15(%rsp), %rsi
	call	_ZNSs4_Rep10_M_destroyERKSaIcE
	jmp	.L44
.L49:
	movq	16(%rsp), %rdi
	leaq	15(%rsp), %rsi
	movq	%rax, %rbx
	leaq	-24(%rdi), %rdi
	call	_ZNSs4_Rep10_M_disposeERKSaIcE
	movq	%rbx, %rdi
.LEHB12:
	call	_Unwind_Resume
.LEHE12:
.L45:
	movl	-8(%rax), %esi
	leal	-1(%rsi), %r8d
	movl	%esi, %r9d
	movl	%r8d, -8(%rax)
	jmp	.L46
	.cfi_endproc
.LFE1819:
	.section	.gcc_except_table._ZN5boost7numeric5ublas9bad_indexC2EPKc,"aG",@progbits,_ZN5boost7numeric5ublas9bad_indexC5EPKc,comdat
.LLSDA1819:
	.byte	0xff
	.byte	0xff
	.byte	0x1
	.uleb128 .LLSDACSE1819-.LLSDACSB1819
.LLSDACSB1819:
	.uleb128 .LEHB10-.LFB1819
	.uleb128 .LEHE10-.LEHB10
	.uleb128 0
	.uleb128 0
	.uleb128 .LEHB11-.LFB1819
	.uleb128 .LEHE11-.LEHB11
	.uleb128 .L49-.LFB1819
	.uleb128 0
	.uleb128 .LEHB12-.LFB1819
	.uleb128 .LEHE12-.LEHB12
	.uleb128 0
	.uleb128 0
.LLSDACSE1819:
	.section	.text._ZN5boost7numeric5ublas9bad_indexC2EPKc,"axG",@progbits,_ZN5boost7numeric5ublas9bad_indexC5EPKc,comdat
	.size	_ZN5boost7numeric5ublas9bad_indexC2EPKc, .-_ZN5boost7numeric5ublas9bad_indexC2EPKc
	.weak	_ZN5boost7numeric5ublas9bad_indexC1EPKc
	.set	_ZN5boost7numeric5ublas9bad_indexC1EPKc,_ZN5boost7numeric5ublas9bad_indexC2EPKc
	.section	.text._ZN5boost7numeric5ublas9bad_index5raiseEv,"axG",@progbits,_ZN5boost7numeric5ublas9bad_index5raiseEv,comdat
	.align 2
	.p2align 4,,15
	.weak	_ZN5boost7numeric5ublas9bad_index5raiseEv
	.type	_ZN5boost7numeric5ublas9bad_index5raiseEv, @function
_ZN5boost7numeric5ublas9bad_index5raiseEv:
.LFB1821:
	.cfi_startproc
	.cfi_personality 0x3,__gxx_personality_v0
	.cfi_lsda 0x3,.LLSDA1821
	pushq	%rbp
	.cfi_def_cfa_offset 16
	.cfi_offset 6, -16
	movq	%rdi, %rbp
	movl	$16, %edi
	pushq	%rbx
	.cfi_def_cfa_offset 24
	.cfi_offset 3, -24
	subq	$8, %rsp
	.cfi_def_cfa_offset 32
	call	__cxa_allocate_exception
	movq	%rbp, %rsi
	movq	%rax, %rdi
	movq	%rax, %rbx
.LEHB13:
	call	_ZNSt11logic_errorC2ERKS_
.LEHE13:
	movq	$_ZTVN5boost7numeric5ublas9bad_indexE+16, (%rbx)
	movl	$_ZN5boost7numeric5ublas9bad_indexD1Ev, %edx
	movl	$_ZTIN5boost7numeric5ublas9bad_indexE, %esi
	movq	%rbx, %rdi
.LEHB14:
	call	__cxa_throw
.L55:
	movq	%rax, %rbp
	movq	%rbx, %rdi
	call	__cxa_free_exception
	movq	%rbp, %rdi
	call	_Unwind_Resume
.LEHE14:
	.cfi_endproc
.LFE1821:
	.section	.gcc_except_table._ZN5boost7numeric5ublas9bad_index5raiseEv,"aG",@progbits,_ZN5boost7numeric5ublas9bad_index5raiseEv,comdat
.LLSDA1821:
	.byte	0xff
	.byte	0xff
	.byte	0x1
	.uleb128 .LLSDACSE1821-.LLSDACSB1821
.LLSDACSB1821:
	.uleb128 .LEHB13-.LFB1821
	.uleb128 .LEHE13-.LEHB13
	.uleb128 .L55-.LFB1821
	.uleb128 0
	.uleb128 .LEHB14-.LFB1821
	.uleb128 .LEHE14-.LEHB14
	.uleb128 0
	.uleb128 0
.LLSDACSE1821:
	.section	.text._ZN5boost7numeric5ublas9bad_index5raiseEv,"axG",@progbits,_ZN5boost7numeric5ublas9bad_index5raiseEv,comdat
	.size	_ZN5boost7numeric5ublas9bad_index5raiseEv, .-_ZN5boost7numeric5ublas9bad_index5raiseEv
	.text
	.align 2
	.p2align 4,,15
	.globl	_ZN5jpvc414MatrixMultiplyC2Ev
	.type	_ZN5jpvc414MatrixMultiplyC2Ev, @function
_ZN5jpvc414MatrixMultiplyC2Ev:
.LFB5309:
	.cfi_startproc
	rep ret
	.cfi_endproc
.LFE5309:
	.size	_ZN5jpvc414MatrixMultiplyC2Ev, .-_ZN5jpvc414MatrixMultiplyC2Ev
	.globl	_ZN5jpvc414MatrixMultiplyC1Ev
	.set	_ZN5jpvc414MatrixMultiplyC1Ev,_ZN5jpvc414MatrixMultiplyC2Ev
	.align 2
	.p2align 4,,15
	.globl	_ZN5jpvc414MatrixMultiplyD2Ev
	.type	_ZN5jpvc414MatrixMultiplyD2Ev, @function
_ZN5jpvc414MatrixMultiplyD2Ev:
.LFB5312:
	.cfi_startproc
	rep ret
	.cfi_endproc
.LFE5312:
	.size	_ZN5jpvc414MatrixMultiplyD2Ev, .-_ZN5jpvc414MatrixMultiplyD2Ev
	.globl	_ZN5jpvc414MatrixMultiplyD1Ev
	.set	_ZN5jpvc414MatrixMultiplyD1Ev,_ZN5jpvc414MatrixMultiplyD2Ev
	.section	.rodata.str1.1,"aMS",@progbits,1
.LC1:
	.string	"Check failed in file "
	.section	.rodata.str1.8,"aMS",@progbits,1
	.align 8
.LC2:
	.string	"/usr/include/boost/numeric/ublas/detail/matrix_assign.hpp"
	.section	.rodata.str1.1
.LC3:
	.string	" at line "
.LC4:
	.string	":"
.LC5:
	.string	"size1 == size2"
.LC6:
	.string	"bad argument"
	.section	.rodata.str1.8
	.align 8
.LC7:
	.string	"/usr/include/boost/numeric/ublas/functional.hpp"
	.section	.rodata.str1.1
.LC8:
	.string	"i < size_i"
.LC9:
	.string	"bad index"
	.section	.rodata.str1.8
	.align 8
.LC10:
	.string	"i <= ((std::numeric_limits<size_type>::max) () - j) / size_j"
	.align 8
.LC11:
	.string	"/usr/include/boost/numeric/ublas/storage.hpp"
	.section	.rodata.str1.1
.LC12:
	.string	"i < size_"
.LC13:
	.string	"j < size_j"
	.section	.text._ZN5boost7numeric5ublas22indexing_matrix_assignINS1_13scalar_assignENS1_6matrixIfNS1_15basic_row_majorImlEENS1_15unbounded_arrayIfSaIfEEEEENS1_20matrix_matrix_binaryISA_SA_NS1_18matrix_matrix_prodISA_SA_fEEEEEEvRT0_RKNS1_17matrix_expressionIT1_EENS1_13row_major_tagE,"axG",@progbits,_ZN5boost7numeric5ublas22indexing_matrix_assignINS1_13scalar_assignENS1_6matrixIfNS1_15basic_row_majorImlEENS1_15unbounded_arrayIfSaIfEEEEENS1_20matrix_matrix_binaryISA_SA_NS1_18matrix_matrix_prodISA_SA_fEEEEEEvRT0_RKNS1_17matrix_expressionIT1_EENS1_13row_major_tagE,comdat
	.p2align 4,,15
	.weak	_ZN5boost7numeric5ublas22indexing_matrix_assignINS1_13scalar_assignENS1_6matrixIfNS1_15basic_row_majorImlEENS1_15unbounded_arrayIfSaIfEEEEENS1_20matrix_matrix_binaryISA_SA_NS1_18matrix_matrix_prodISA_SA_fEEEEEEvRT0_RKNS1_17matrix_expressionIT1_EENS1_13row_major_tagE
	.type	_ZN5boost7numeric5ublas22indexing_matrix_assignINS1_13scalar_assignENS1_6matrixIfNS1_15basic_row_majorImlEENS1_15unbounded_arrayIfSaIfEEEEENS1_20matrix_matrix_binaryISA_SA_NS1_18matrix_matrix_prodISA_SA_fEEEEEEvRT0_RKNS1_17matrix_expressionIT1_EENS1_13row_major_tagE, @function
_ZN5boost7numeric5ublas22indexing_matrix_assignINS1_13scalar_assignENS1_6matrixIfNS1_15basic_row_majorImlEENS1_15unbounded_arrayIfSaIfEEEEENS1_20matrix_matrix_binaryISA_SA_NS1_18matrix_matrix_prodISA_SA_fEEEEEEvRT0_RKNS1_17matrix_expressionIT1_EENS1_13row_major_tagE:
.LFB5489:
	.cfi_startproc
	.cfi_personality 0x3,__gxx_personality_v0
	.cfi_lsda 0x3,.LLSDA5489
	pushq	%r15
	.cfi_def_cfa_offset 16
	.cfi_offset 15, -16
	pushq	%r14
	.cfi_def_cfa_offset 24
	.cfi_offset 14, -24
	pushq	%r13
	.cfi_def_cfa_offset 32
	.cfi_offset 13, -32
	pushq	%r12
	.cfi_def_cfa_offset 40
	.cfi_offset 12, -40
	pushq	%rbp
	.cfi_def_cfa_offset 48
	.cfi_offset 6, -48
	pushq	%rbx
	.cfi_def_cfa_offset 56
	.cfi_offset 3, -56
	subq	$88, %rsp
	.cfi_def_cfa_offset 144
	movq	(%rsi), %rax
	movq	(%rdi), %rcx
	movq	%rdi, 24(%rsp)
	cmpq	(%rax), %rcx
	movq	%rax, 56(%rsp)
	movq	%rcx, 40(%rsp)
	jne	.L136
	movq	8(%rsi), %r9
	movq	24(%rsp), %rbx
	movq	8(%rbx), %r14
	cmpq	8(%r9), %r14
	jne	.L137
	cmpq	$0, 40(%rsp)
	je	.L60
	xorps	%xmm3, %xmm3
	leaq	0(,%r14,4), %rsi
	movq	$0, 48(%rsp)
	xorl	%r15d, %r15d
	movq	%rsi, 8(%rsp)
	movaps	%xmm3, %xmm2
.L66:
	testq	%r14, %r14
	je	.L98
	movq	56(%rsp), %rdi
	movq	(%r9), %rsi
	cmpq	8(%rdi), %rsi
	jne	.L100
	movq	48(%rsp), %rbp
	movq	$0, 16(%rsp)
	salq	$2, %rbp
	movq	%rbp, 32(%rsp)
	movq	%rsi, %rbp
	imulq	%r15, %rbp
	testq	%rsi, %rsi
	je	.L138
	.p2align 4,,10
	.p2align 3
.L69:
	cmpq	%r15, 40(%rsp)
	jbe	.L81
	xorl	%edx, %edx
	movq	$-1, %rax
	divq	%rsi
	cmpq	%r15, %rax
	jb	.L82
	movq	56(%rsp), %r8
	movq	24(%r8), %r13
	cmpq	%r13, %rbp
	jnb	.L83
	movq	16(%rsp), %rax
	movq	32(%r8), %r12
	cmpq	%rax, %r14
	jbe	.L84
	leaq	0(,%rax,4), %rdi
	xorl	%edx, %edx
	movq	%rax, %r11
	notq	%rax
	xorl	%ecx, %ecx
	divq	%r14
	movss	(%r12,%rbp,4), %xmm1
	movq	%rdi, %r10
	movaps	%xmm2, %xmm0
	testb	$1, %al
	movq	%rax, %r8
	jne	.L103
	movq	16(%rsp), %rbx
	cmpq	24(%r9), %rbx
	jnb	.L86
	movq	32(%r9), %rcx
	cmpq	$1, %rsi
	movss	(%rcx,%rdi), %xmm0
	movl	$1, %ecx
	mulss	%xmm1, %xmm0
	addss	%xmm2, %xmm0
	je	.L87
	xorl	%edx, %edx
	movq	$-2, %rax
	divq	%rsi
	cmpq	%rax, %r15
	ja	.L82
	leaq	1(%rbp), %rax
	addq	8(%rsp), %r10
	leaq	(%rbx,%r14), %r11
	cmpq	%rax, %r13
	ja	.L133
	jmp	.L83
	.p2align 4,,10
	.p2align 3
.L139:
	movq	%rdi, %rax
	xorl	%edx, %edx
	notq	%rax
	divq	%rsi
	cmpq	%rax, %r15
	ja	.L82
	addq	%rbp, %rdi
	addq	8(%rsp), %r10
	addq	%r14, %r11
	cmpq	%rdi, %r13
	jbe	.L83
	cmpq	24(%r9), %r11
	movss	(%r12,%rdi,4), %xmm4
	movq	%r8, %rax
	jnb	.L86
	mulss	(%rbx,%r10), %xmm4
	addq	$2, %rcx
	cmpq	%rcx, %rsi
	addss	%xmm4, %xmm0
	je	.L87
	movq	%rcx, %rax
	xorl	%edx, %edx
	notq	%rax
	divq	%rsi
	cmpq	%rax, %r15
	ja	.L82
	leaq	(%rcx,%rbp), %rax
	addq	8(%rsp), %r10
	addq	%r14, %r11
	cmpq	%rax, %r13
	jbe	.L83
.L133:
	movss	(%r12,%rax,4), %xmm1
.L103:
	cmpq	%r8, %rcx
	movq	%r8, %rax
	ja	.L85
	cmpq	24(%r9), %r11
	jnb	.L86
	movq	32(%r9), %rbx
	leaq	1(%rcx), %rdi
	cmpq	%rdi, %rsi
	mulss	(%rbx,%r10), %xmm1
	addss	%xmm1, %xmm0
	jne	.L139
.L87:
	cmpq	%rax, %r15
	ja	.L140
	movq	24(%rsp), %r12
	movq	48(%rsp), %r13
	addq	16(%rsp), %r13
	cmpq	24(%r12), %r13
	jnb	.L141
	addq	$1, 16(%rsp)
	movq	32(%r12), %r8
	cmpq	%r14, 16(%rsp)
	movq	32(%rsp), %r11
	movss	%xmm0, (%r8,%r11)
	je	.L98
	addq	$4, 32(%rsp)
	testq	%rsi, %rsi
	jne	.L69
.L138:
	cmpq	%r15, 40(%rsp)
	jbe	.L142
	movq	16(%rsp), %rax
	cmpq	%rax, %r14
	jbe	.L90
	notq	%rax
	xorl	%edx, %edx
	divq	%r14
	movaps	%xmm3, %xmm0
	jmp	.L87
	.p2align 4,,10
	.p2align 3
.L98:
	addq	$1, %r15
	addq	%r14, 48(%rsp)
	cmpq	40(%rsp), %r15
	jne	.L66
.L60:
	addq	$88, %rsp
	.cfi_remember_state
	.cfi_def_cfa_offset 56
	popq	%rbx
	.cfi_def_cfa_offset 48
	popq	%rbp
	.cfi_def_cfa_offset 40
	popq	%r12
	.cfi_def_cfa_offset 32
	popq	%r13
	.cfi_def_cfa_offset 24
	popq	%r14
	.cfi_def_cfa_offset 16
	popq	%r15
	.cfi_def_cfa_offset 8
	ret
.L85:
	.cfi_restore_state
	movl	$.LC1, %esi
	movl	$_ZSt4cerr, %edi
.LEHB15:
	call	_ZStlsISt11char_traitsIcEERSt13basic_ostreamIcT_ES5_PKc
	movl	$.LC7, %esi
	movq	%rax, %rdi
	call	_ZStlsISt11char_traitsIcEERSt13basic_ostreamIcT_ES5_PKc
	movl	$.LC3, %esi
	movq	%rax, %rdi
	call	_ZStlsISt11char_traitsIcEERSt13basic_ostreamIcT_ES5_PKc
	movl	$1374, %esi
	movq	%rax, %rdi
	call	_ZNSolsEi
	movl	$.LC4, %esi
	movq	%rax, %rdi
	call	_ZStlsISt11char_traitsIcEERSt13basic_ostreamIcT_ES5_PKc
	movq	%rax, %rdi
	call	_ZSt4endlIcSt11char_traitsIcEERSt13basic_ostreamIT_T0_ES6_
	movl	$.LC10, %esi
	movl	$_ZSt4cerr, %edi
	call	_ZStlsISt11char_traitsIcEERSt13basic_ostreamIcT_ES5_PKc
	movq	%rax, %rdi
	call	_ZSt4endlIcSt11char_traitsIcEERSt13basic_ostreamIT_T0_ES6_
	leaq	64(%rsp), %rdi
	movl	$.LC9, %esi
	call	_ZN5boost7numeric5ublas9bad_indexC1EPKc
.LEHE15:
	leaq	64(%rsp), %rdi
.LEHB16:
	call	_ZN5boost7numeric5ublas9bad_index5raiseEv
.LEHE16:
.L81:
	movl	$.LC1, %esi
	movl	$_ZSt4cerr, %edi
.LEHB17:
	call	_ZStlsISt11char_traitsIcEERSt13basic_ostreamIcT_ES5_PKc
	movl	$.LC7, %esi
	movq	%rax, %rdi
	call	_ZStlsISt11char_traitsIcEERSt13basic_ostreamIcT_ES5_PKc
	movl	$.LC3, %esi
	movq	%rax, %rdi
	call	_ZStlsISt11char_traitsIcEERSt13basic_ostreamIcT_ES5_PKc
	movl	$1370, %esi
	movq	%rax, %rdi
	call	_ZNSolsEi
	movl	$.LC4, %esi
	movq	%rax, %rdi
	call	_ZStlsISt11char_traitsIcEERSt13basic_ostreamIcT_ES5_PKc
	movq	%rax, %rdi
	call	_ZSt4endlIcSt11char_traitsIcEERSt13basic_ostreamIT_T0_ES6_
	movl	$.LC8, %esi
	movl	$_ZSt4cerr, %edi
	call	_ZStlsISt11char_traitsIcEERSt13basic_ostreamIcT_ES5_PKc
	movq	%rax, %rdi
	call	_ZSt4endlIcSt11char_traitsIcEERSt13basic_ostreamIT_T0_ES6_
	leaq	64(%rsp), %rdi
	movl	$.LC9, %esi
	call	_ZN5boost7numeric5ublas9bad_indexC1EPKc
.LEHE17:
	leaq	64(%rsp), %rdi
.LEHB18:
	call	_ZN5boost7numeric5ublas9bad_index5raiseEv
.LEHE18:
.L82:
	movl	$.LC1, %esi
	movl	$_ZSt4cerr, %edi
.LEHB19:
	call	_ZStlsISt11char_traitsIcEERSt13basic_ostreamIcT_ES5_PKc
	movl	$.LC7, %esi
	movq	%rax, %rdi
	call	_ZStlsISt11char_traitsIcEERSt13basic_ostreamIcT_ES5_PKc
	movl	$.LC3, %esi
	movq	%rax, %rdi
	call	_ZStlsISt11char_traitsIcEERSt13basic_ostreamIcT_ES5_PKc
	movl	$1374, %esi
	movq	%rax, %rdi
	call	_ZNSolsEi
	movl	$.LC4, %esi
	movq	%rax, %rdi
	call	_ZStlsISt11char_traitsIcEERSt13basic_ostreamIcT_ES5_PKc
	movq	%rax, %rdi
	call	_ZSt4endlIcSt11char_traitsIcEERSt13basic_ostreamIT_T0_ES6_
	movl	$.LC10, %esi
	movl	$_ZSt4cerr, %edi
	call	_ZStlsISt11char_traitsIcEERSt13basic_ostreamIcT_ES5_PKc
	movq	%rax, %rdi
	call	_ZSt4endlIcSt11char_traitsIcEERSt13basic_ostreamIT_T0_ES6_
	leaq	64(%rsp), %rdi
	movl	$.LC9, %esi
	call	_ZN5boost7numeric5ublas9bad_indexC1EPKc
.LEHE19:
	leaq	64(%rsp), %rdi
.LEHB20:
	call	_ZN5boost7numeric5ublas9bad_index5raiseEv
.LEHE20:
.L83:
	movl	$.LC1, %esi
	movl	$_ZSt4cerr, %edi
.LEHB21:
	call	_ZStlsISt11char_traitsIcEERSt13basic_ostreamIcT_ES5_PKc
	movl	$.LC11, %esi
	movq	%rax, %rdi
	call	_ZStlsISt11char_traitsIcEERSt13basic_ostreamIcT_ES5_PKc
	movl	$.LC3, %esi
	movq	%rax, %rdi
	call	_ZStlsISt11char_traitsIcEERSt13basic_ostreamIcT_ES5_PKc
	movl	$190, %esi
	movq	%rax, %rdi
	call	_ZNSolsEi
	movl	$.LC4, %esi
	movq	%rax, %rdi
	call	_ZStlsISt11char_traitsIcEERSt13basic_ostreamIcT_ES5_PKc
	movq	%rax, %rdi
	call	_ZSt4endlIcSt11char_traitsIcEERSt13basic_ostreamIT_T0_ES6_
	movl	$.LC12, %esi
	movl	$_ZSt4cerr, %edi
	call	_ZStlsISt11char_traitsIcEERSt13basic_ostreamIcT_ES5_PKc
	movq	%rax, %rdi
	call	_ZSt4endlIcSt11char_traitsIcEERSt13basic_ostreamIT_T0_ES6_
	leaq	64(%rsp), %rdi
	movl	$.LC9, %esi
	call	_ZN5boost7numeric5ublas9bad_indexC1EPKc
.LEHE21:
	leaq	64(%rsp), %rdi
.LEHB22:
	call	_ZN5boost7numeric5ublas9bad_index5raiseEv
.LEHE22:
.L86:
	movl	$.LC1, %esi
	movl	$_ZSt4cerr, %edi
.LEHB23:
	call	_ZStlsISt11char_traitsIcEERSt13basic_ostreamIcT_ES5_PKc
	movl	$.LC11, %esi
	movq	%rax, %rdi
	call	_ZStlsISt11char_traitsIcEERSt13basic_ostreamIcT_ES5_PKc
	movl	$.LC3, %esi
	movq	%rax, %rdi
	call	_ZStlsISt11char_traitsIcEERSt13basic_ostreamIcT_ES5_PKc
	movl	$190, %esi
	movq	%rax, %rdi
	call	_ZNSolsEi
	movl	$.LC4, %esi
	movq	%rax, %rdi
	call	_ZStlsISt11char_traitsIcEERSt13basic_ostreamIcT_ES5_PKc
	movq	%rax, %rdi
	call	_ZSt4endlIcSt11char_traitsIcEERSt13basic_ostreamIT_T0_ES6_
	movl	$.LC12, %esi
	movl	$_ZSt4cerr, %edi
	call	_ZStlsISt11char_traitsIcEERSt13basic_ostreamIcT_ES5_PKc
	movq	%rax, %rdi
	call	_ZSt4endlIcSt11char_traitsIcEERSt13basic_ostreamIT_T0_ES6_
	leaq	64(%rsp), %rdi
	movl	$.LC9, %esi
	call	_ZN5boost7numeric5ublas9bad_indexC1EPKc
.LEHE23:
	leaq	64(%rsp), %rdi
.LEHB24:
	call	_ZN5boost7numeric5ublas9bad_index5raiseEv
.LEHE24:
.L113:
.L135:
	leaq	64(%rsp), %rdi
	movq	%rax, %r14
	movq	$_ZTVN5boost7numeric5ublas9bad_indexE+16, 64(%rsp)
	call	_ZNSt12out_of_rangeD2Ev
	movq	%r14, %rdi
.LEHB25:
	call	_Unwind_Resume
.L109:
	jmp	.L135
.L107:
	.p2align 4,,5
	jmp	.L135
.L108:
	.p2align 4,,11
	jmp	.L135
.L110:
	.p2align 4,,11
	jmp	.L135
.L84:
	movl	$.LC1, %esi
	movl	$_ZSt4cerr, %edi
	call	_ZStlsISt11char_traitsIcEERSt13basic_ostreamIcT_ES5_PKc
	movl	$.LC7, %esi
	movq	%rax, %rdi
	call	_ZStlsISt11char_traitsIcEERSt13basic_ostreamIcT_ES5_PKc
	movl	$.LC3, %esi
	movq	%rax, %rdi
	call	_ZStlsISt11char_traitsIcEERSt13basic_ostreamIcT_ES5_PKc
	movl	$1371, %esi
	movq	%rax, %rdi
	call	_ZNSolsEi
	movl	$.LC4, %esi
	movq	%rax, %rdi
	call	_ZStlsISt11char_traitsIcEERSt13basic_ostreamIcT_ES5_PKc
	movq	%rax, %rdi
	call	_ZSt4endlIcSt11char_traitsIcEERSt13basic_ostreamIT_T0_ES6_
	movl	$.LC13, %esi
	movl	$_ZSt4cerr, %edi
	call	_ZStlsISt11char_traitsIcEERSt13basic_ostreamIcT_ES5_PKc
	movq	%rax, %rdi
	call	_ZSt4endlIcSt11char_traitsIcEERSt13basic_ostreamIT_T0_ES6_
	leaq	64(%rsp), %rdi
	movl	$.LC9, %esi
	call	_ZN5boost7numeric5ublas9bad_indexC1EPKc
.LEHE25:
	leaq	64(%rsp), %rdi
.LEHB26:
	call	_ZN5boost7numeric5ublas9bad_index5raiseEv
.LEHE26:
.L100:
	movl	$.LC1, %esi
	movl	$_ZSt4cerr, %edi
.LEHB27:
	call	_ZStlsISt11char_traitsIcEERSt13basic_ostreamIcT_ES5_PKc
	movl	$.LC7, %esi
	movq	%rax, %rdi
	call	_ZStlsISt11char_traitsIcEERSt13basic_ostreamIcT_ES5_PKc
	movl	$.LC3, %esi
	movq	%rax, %rdi
	call	_ZStlsISt11char_traitsIcEERSt13basic_ostreamIcT_ES5_PKc
	movl	$1172, %esi
	movq	%rax, %rdi
	call	_ZNSolsEi
	movl	$.LC4, %esi
	movq	%rax, %rdi
	call	_ZStlsISt11char_traitsIcEERSt13basic_ostreamIcT_ES5_PKc
	movq	%rax, %rdi
	call	_ZSt4endlIcSt11char_traitsIcEERSt13basic_ostreamIT_T0_ES6_
	movl	$.LC5, %esi
	movl	$_ZSt4cerr, %edi
	call	_ZStlsISt11char_traitsIcEERSt13basic_ostreamIcT_ES5_PKc
	movq	%rax, %rdi
	call	_ZSt4endlIcSt11char_traitsIcEERSt13basic_ostreamIT_T0_ES6_
	leaq	64(%rsp), %rdi
	movl	$.LC6, %esi
	call	_ZN5boost7numeric5ublas12bad_argumentC1EPKc
.LEHE27:
	leaq	64(%rsp), %rdi
.LEHB28:
	call	_ZN5boost7numeric5ublas12bad_argument5raiseEv
.LEHE28:
.L112:
.L111:
	jmp	.L135
.L106:
.L134:
	leaq	64(%rsp), %rdi
	movq	%rax, %r15
	movq	$_ZTVN5boost7numeric5ublas12bad_argumentE+16, 64(%rsp)
	call	_ZNSt16invalid_argumentD2Ev
	movq	%r15, %rdi
.LEHB29:
	call	_Unwind_Resume
.L137:
	movl	$.LC1, %esi
	movl	$_ZSt4cerr, %edi
	call	_ZStlsISt11char_traitsIcEERSt13basic_ostreamIcT_ES5_PKc
	movl	$.LC2, %esi
	movq	%rax, %rdi
	call	_ZStlsISt11char_traitsIcEERSt13basic_ostreamIcT_ES5_PKc
	movl	$.LC3, %esi
	movq	%rax, %rdi
	call	_ZStlsISt11char_traitsIcEERSt13basic_ostreamIcT_ES5_PKc
	movl	$585, %esi
	movq	%rax, %rdi
	call	_ZNSolsEi
	movl	$.LC4, %esi
	movq	%rax, %rdi
	call	_ZStlsISt11char_traitsIcEERSt13basic_ostreamIcT_ES5_PKc
	movq	%rax, %rdi
	call	_ZSt4endlIcSt11char_traitsIcEERSt13basic_ostreamIT_T0_ES6_
	movl	$.LC5, %esi
	movl	$_ZSt4cerr, %edi
	call	_ZStlsISt11char_traitsIcEERSt13basic_ostreamIcT_ES5_PKc
	movq	%rax, %rdi
	call	_ZSt4endlIcSt11char_traitsIcEERSt13basic_ostreamIT_T0_ES6_
	leaq	64(%rsp), %rdi
	movl	$.LC6, %esi
	call	_ZN5boost7numeric5ublas12bad_argumentC1EPKc
.LEHE29:
	leaq	64(%rsp), %rdi
.LEHB30:
	call	_ZN5boost7numeric5ublas12bad_argument5raiseEv
.LEHE30:
.L140:
	movl	$.LC1, %esi
	movl	$_ZSt4cerr, %edi
.LEHB31:
	call	_ZStlsISt11char_traitsIcEERSt13basic_ostreamIcT_ES5_PKc
	movl	$.LC7, %esi
	movq	%rax, %rdi
	call	_ZStlsISt11char_traitsIcEERSt13basic_ostreamIcT_ES5_PKc
	movl	$.LC3, %esi
	movq	%rax, %rdi
	call	_ZStlsISt11char_traitsIcEERSt13basic_ostreamIcT_ES5_PKc
	movl	$1374, %esi
	movq	%rax, %rdi
	call	_ZNSolsEi
	movl	$.LC4, %esi
	movq	%rax, %rdi
	call	_ZStlsISt11char_traitsIcEERSt13basic_ostreamIcT_ES5_PKc
	movq	%rax, %rdi
	call	_ZSt4endlIcSt11char_traitsIcEERSt13basic_ostreamIT_T0_ES6_
	movl	$.LC10, %esi
	movl	$_ZSt4cerr, %edi
	call	_ZStlsISt11char_traitsIcEERSt13basic_ostreamIcT_ES5_PKc
	movq	%rax, %rdi
	call	_ZSt4endlIcSt11char_traitsIcEERSt13basic_ostreamIT_T0_ES6_
	leaq	64(%rsp), %rdi
	movl	$.LC9, %esi
	call	_ZN5boost7numeric5ublas9bad_indexC1EPKc
.LEHE31:
	leaq	64(%rsp), %rdi
.LEHB32:
	call	_ZN5boost7numeric5ublas9bad_index5raiseEv
.LEHE32:
.L105:
	jmp	.L134
.L114:
	.p2align 4,,3
	jmp	.L135
.L136:
	movl	$.LC1, %esi
	movl	$_ZSt4cerr, %edi
.LEHB33:
	call	_ZStlsISt11char_traitsIcEERSt13basic_ostreamIcT_ES5_PKc
	movl	$.LC2, %esi
	movq	%rax, %rdi
	call	_ZStlsISt11char_traitsIcEERSt13basic_ostreamIcT_ES5_PKc
	movl	$.LC3, %esi
	movq	%rax, %rdi
	call	_ZStlsISt11char_traitsIcEERSt13basic_ostreamIcT_ES5_PKc
	movl	$584, %esi
	movq	%rax, %rdi
	call	_ZNSolsEi
	movl	$.LC4, %esi
	movq	%rax, %rdi
	call	_ZStlsISt11char_traitsIcEERSt13basic_ostreamIcT_ES5_PKc
	movq	%rax, %rdi
	call	_ZSt4endlIcSt11char_traitsIcEERSt13basic_ostreamIT_T0_ES6_
	movl	$.LC5, %esi
	movl	$_ZSt4cerr, %edi
	call	_ZStlsISt11char_traitsIcEERSt13basic_ostreamIcT_ES5_PKc
	movq	%rax, %rdi
	call	_ZSt4endlIcSt11char_traitsIcEERSt13basic_ostreamIT_T0_ES6_
	leaq	64(%rsp), %rdi
	movl	$.LC6, %esi
	call	_ZN5boost7numeric5ublas12bad_argumentC1EPKc
.LEHE33:
	leaq	64(%rsp), %rdi
.LEHB34:
	call	_ZN5boost7numeric5ublas12bad_argument5raiseEv
.LEHE34:
.L90:
	movl	$.LC1, %esi
	movl	$_ZSt4cerr, %edi
.LEHB35:
	call	_ZStlsISt11char_traitsIcEERSt13basic_ostreamIcT_ES5_PKc
	movl	$.LC7, %esi
	movq	%rax, %rdi
	call	_ZStlsISt11char_traitsIcEERSt13basic_ostreamIcT_ES5_PKc
	movl	$.LC3, %esi
	movq	%rax, %rdi
	call	_ZStlsISt11char_traitsIcEERSt13basic_ostreamIcT_ES5_PKc
	movl	$1371, %esi
	movq	%rax, %rdi
	call	_ZNSolsEi
	movl	$.LC4, %esi
	movq	%rax, %rdi
	call	_ZStlsISt11char_traitsIcEERSt13basic_ostreamIcT_ES5_PKc
	movq	%rax, %rdi
	call	_ZSt4endlIcSt11char_traitsIcEERSt13basic_ostreamIT_T0_ES6_
	movl	$.LC13, %esi
	movl	$_ZSt4cerr, %edi
	call	_ZStlsISt11char_traitsIcEERSt13basic_ostreamIcT_ES5_PKc
	movq	%rax, %rdi
	call	_ZSt4endlIcSt11char_traitsIcEERSt13basic_ostreamIT_T0_ES6_
	leaq	64(%rsp), %rdi
	movl	$.LC9, %esi
	call	_ZN5boost7numeric5ublas9bad_indexC1EPKc
.LEHE35:
	leaq	64(%rsp), %rdi
.LEHB36:
	call	_ZN5boost7numeric5ublas9bad_index5raiseEv
.LEHE36:
.L104:
	jmp	.L134
.L115:
	.p2align 4,,3
	jmp	.L135
.L142:
	movl	$.LC1, %esi
	movl	$_ZSt4cerr, %edi
.LEHB37:
	call	_ZStlsISt11char_traitsIcEERSt13basic_ostreamIcT_ES5_PKc
	movl	$.LC7, %esi
	movq	%rax, %rdi
	call	_ZStlsISt11char_traitsIcEERSt13basic_ostreamIcT_ES5_PKc
	movl	$.LC3, %esi
	movq	%rax, %rdi
	call	_ZStlsISt11char_traitsIcEERSt13basic_ostreamIcT_ES5_PKc
	movl	$1370, %esi
	movq	%rax, %rdi
	call	_ZNSolsEi
	movl	$.LC4, %esi
	movq	%rax, %rdi
	call	_ZStlsISt11char_traitsIcEERSt13basic_ostreamIcT_ES5_PKc
	movq	%rax, %rdi
	call	_ZSt4endlIcSt11char_traitsIcEERSt13basic_ostreamIT_T0_ES6_
	movl	$.LC8, %esi
	movl	$_ZSt4cerr, %edi
	call	_ZStlsISt11char_traitsIcEERSt13basic_ostreamIcT_ES5_PKc
	movq	%rax, %rdi
	call	_ZSt4endlIcSt11char_traitsIcEERSt13basic_ostreamIT_T0_ES6_
	leaq	64(%rsp), %rdi
	movl	$.LC9, %esi
	call	_ZN5boost7numeric5ublas9bad_indexC1EPKc
.LEHE37:
	leaq	64(%rsp), %rdi
.LEHB38:
	call	_ZN5boost7numeric5ublas9bad_index5raiseEv
.LEHE38:
.L141:
	movl	$.LC1, %esi
	movl	$_ZSt4cerr, %edi
.LEHB39:
	call	_ZStlsISt11char_traitsIcEERSt13basic_ostreamIcT_ES5_PKc
	movl	$.LC11, %esi
	movq	%rax, %rdi
	call	_ZStlsISt11char_traitsIcEERSt13basic_ostreamIcT_ES5_PKc
	movl	$.LC3, %esi
	movq	%rax, %rdi
	call	_ZStlsISt11char_traitsIcEERSt13basic_ostreamIcT_ES5_PKc
	movl	$195, %esi
	movq	%rax, %rdi
	call	_ZNSolsEi
	movl	$.LC4, %esi
	movq	%rax, %rdi
	call	_ZStlsISt11char_traitsIcEERSt13basic_ostreamIcT_ES5_PKc
	movq	%rax, %rdi
	call	_ZSt4endlIcSt11char_traitsIcEERSt13basic_ostreamIT_T0_ES6_
	movl	$.LC12, %esi
	movl	$_ZSt4cerr, %edi
	call	_ZStlsISt11char_traitsIcEERSt13basic_ostreamIcT_ES5_PKc
	movq	%rax, %rdi
	call	_ZSt4endlIcSt11char_traitsIcEERSt13basic_ostreamIT_T0_ES6_
	leaq	64(%rsp), %rdi
	movl	$.LC9, %esi
	call	_ZN5boost7numeric5ublas9bad_indexC1EPKc
.LEHE39:
	leaq	64(%rsp), %rdi
.LEHB40:
	call	_ZN5boost7numeric5ublas9bad_index5raiseEv
.LEHE40:
.L116:
	jmp	.L135
.L117:
	.p2align 4,,3
	jmp	.L135
	.cfi_endproc
.LFE5489:
	.section	.gcc_except_table._ZN5boost7numeric5ublas22indexing_matrix_assignINS1_13scalar_assignENS1_6matrixIfNS1_15basic_row_majorImlEENS1_15unbounded_arrayIfSaIfEEEEENS1_20matrix_matrix_binaryISA_SA_NS1_18matrix_matrix_prodISA_SA_fEEEEEEvRT0_RKNS1_17matrix_expressionIT1_EENS1_13row_major_tagE,"aG",@progbits,_ZN5boost7numeric5ublas22indexing_matrix_assignINS1_13scalar_assignENS1_6matrixIfNS1_15basic_row_majorImlEENS1_15unbounded_arrayIfSaIfEEEEENS1_20matrix_matrix_binaryISA_SA_NS1_18matrix_matrix_prodISA_SA_fEEEEEEvRT0_RKNS1_17matrix_expressionIT1_EENS1_13row_major_tagE,comdat
.LLSDA5489:
	.byte	0xff
	.byte	0xff
	.byte	0x1
	.uleb128 .LLSDACSE5489-.LLSDACSB5489
.LLSDACSB5489:
	.uleb128 .LEHB15-.LFB5489
	.uleb128 .LEHE15-.LEHB15
	.uleb128 0
	.uleb128 0
	.uleb128 .LEHB16-.LFB5489
	.uleb128 .LEHE16-.LEHB16
	.uleb128 .L110-.LFB5489
	.uleb128 0
	.uleb128 .LEHB17-.LFB5489
	.uleb128 .LEHE17-.LEHB17
	.uleb128 0
	.uleb128 0
	.uleb128 .LEHB18-.LFB5489
	.uleb128 .LEHE18-.LEHB18
	.uleb128 .L108-.LFB5489
	.uleb128 0
	.uleb128 .LEHB19-.LFB5489
	.uleb128 .LEHE19-.LEHB19
	.uleb128 0
	.uleb128 0
	.uleb128 .LEHB20-.LFB5489
	.uleb128 .LEHE20-.LEHB20
	.uleb128 .L107-.LFB5489
	.uleb128 0
	.uleb128 .LEHB21-.LFB5489
	.uleb128 .LEHE21-.LEHB21
	.uleb128 0
	.uleb128 0
	.uleb128 .LEHB22-.LFB5489
	.uleb128 .LEHE22-.LEHB22
	.uleb128 .L109-.LFB5489
	.uleb128 0
	.uleb128 .LEHB23-.LFB5489
	.uleb128 .LEHE23-.LEHB23
	.uleb128 0
	.uleb128 0
	.uleb128 .LEHB24-.LFB5489
	.uleb128 .LEHE24-.LEHB24
	.uleb128 .L113-.LFB5489
	.uleb128 0
	.uleb128 .LEHB25-.LFB5489
	.uleb128 .LEHE25-.LEHB25
	.uleb128 0
	.uleb128 0
	.uleb128 .LEHB26-.LFB5489
	.uleb128 .LEHE26-.LEHB26
	.uleb128 .L111-.LFB5489
	.uleb128 0
	.uleb128 .LEHB27-.LFB5489
	.uleb128 .LEHE27-.LEHB27
	.uleb128 0
	.uleb128 0
	.uleb128 .LEHB28-.LFB5489
	.uleb128 .LEHE28-.LEHB28
	.uleb128 .L106-.LFB5489
	.uleb128 0
	.uleb128 .LEHB29-.LFB5489
	.uleb128 .LEHE29-.LEHB29
	.uleb128 0
	.uleb128 0
	.uleb128 .LEHB30-.LFB5489
	.uleb128 .LEHE30-.LEHB30
	.uleb128 .L105-.LFB5489
	.uleb128 0
	.uleb128 .LEHB31-.LFB5489
	.uleb128 .LEHE31-.LEHB31
	.uleb128 0
	.uleb128 0
	.uleb128 .LEHB32-.LFB5489
	.uleb128 .LEHE32-.LEHB32
	.uleb128 .L114-.LFB5489
	.uleb128 0
	.uleb128 .LEHB33-.LFB5489
	.uleb128 .LEHE33-.LEHB33
	.uleb128 0
	.uleb128 0
	.uleb128 .LEHB34-.LFB5489
	.uleb128 .LEHE34-.LEHB34
	.uleb128 .L104-.LFB5489
	.uleb128 0
	.uleb128 .LEHB35-.LFB5489
	.uleb128 .LEHE35-.LEHB35
	.uleb128 0
	.uleb128 0
	.uleb128 .LEHB36-.LFB5489
	.uleb128 .LEHE36-.LEHB36
	.uleb128 .L115-.LFB5489
	.uleb128 0
	.uleb128 .LEHB37-.LFB5489
	.uleb128 .LEHE37-.LEHB37
	.uleb128 0
	.uleb128 0
	.uleb128 .LEHB38-.LFB5489
	.uleb128 .LEHE38-.LEHB38
	.uleb128 .L116-.LFB5489
	.uleb128 0
	.uleb128 .LEHB39-.LFB5489
	.uleb128 .LEHE39-.LEHB39
	.uleb128 0
	.uleb128 0
	.uleb128 .LEHB40-.LFB5489
	.uleb128 .LEHE40-.LEHB40
	.uleb128 .L117-.LFB5489
	.uleb128 0
.LLSDACSE5489:
	.section	.text._ZN5boost7numeric5ublas22indexing_matrix_assignINS1_13scalar_assignENS1_6matrixIfNS1_15basic_row_majorImlEENS1_15unbounded_arrayIfSaIfEEEEENS1_20matrix_matrix_binaryISA_SA_NS1_18matrix_matrix_prodISA_SA_fEEEEEEvRT0_RKNS1_17matrix_expressionIT1_EENS1_13row_major_tagE,"axG",@progbits,_ZN5boost7numeric5ublas22indexing_matrix_assignINS1_13scalar_assignENS1_6matrixIfNS1_15basic_row_majorImlEENS1_15unbounded_arrayIfSaIfEEEEENS1_20matrix_matrix_binaryISA_SA_NS1_18matrix_matrix_prodISA_SA_fEEEEEEvRT0_RKNS1_17matrix_expressionIT1_EENS1_13row_major_tagE,comdat
	.size	_ZN5boost7numeric5ublas22indexing_matrix_assignINS1_13scalar_assignENS1_6matrixIfNS1_15basic_row_majorImlEENS1_15unbounded_arrayIfSaIfEEEEENS1_20matrix_matrix_binaryISA_SA_NS1_18matrix_matrix_prodISA_SA_fEEEEEEvRT0_RKNS1_17matrix_expressionIT1_EENS1_13row_major_tagE, .-_ZN5boost7numeric5ublas22indexing_matrix_assignINS1_13scalar_assignENS1_6matrixIfNS1_15basic_row_majorImlEENS1_15unbounded_arrayIfSaIfEEEEENS1_20matrix_matrix_binaryISA_SA_NS1_18matrix_matrix_prodISA_SA_fEEEEEEvRT0_RKNS1_17matrix_expressionIT1_EENS1_13row_major_tagE
	.section	.rodata.str1.8
	.align 8
.LC14:
	.string	"matrix incompatible lhs.size2() != rhs.size1()"
	.align 8
.LC15:
	.string	"size_j == 0 || size_i <= (std::numeric_limits<size_type>::max) () / size_j"
	.section	.rodata.str1.1
.LC16:
	.string	"bad size"
	.text
	.align 2
	.p2align 4,,15
	.globl	_ZNK5jpvc414MatrixMultiply8multiplyERKN5boost7numeric5ublas6matrixIfNS3_15basic_row_majorImlEENS3_15unbounded_arrayIfSaIfEEEEESC_
	.type	_ZNK5jpvc414MatrixMultiply8multiplyERKN5boost7numeric5ublas6matrixIfNS3_15basic_row_majorImlEENS3_15unbounded_arrayIfSaIfEEEEESC_, @function
_ZNK5jpvc414MatrixMultiply8multiplyERKN5boost7numeric5ublas6matrixIfNS3_15basic_row_majorImlEENS3_15unbounded_arrayIfSaIfEEEEESC_:
.LFB5314:
	.cfi_startproc
	.cfi_personality 0x3,__gxx_personality_v0
	.cfi_lsda 0x3,.LLSDA5314
	pushq	%rbp
	.cfi_def_cfa_offset 16
	.cfi_offset 6, -16
	pushq	%rbx
	.cfi_def_cfa_offset 24
	.cfi_offset 3, -24
	subq	$72, %rsp
	.cfi_def_cfa_offset 96
	movq	(%rcx), %rax
	cmpq	%rax, 8(%rdx)
	jne	.L170
	movq	(%rdx), %rsi
	movq	%rcx, 40(%rsp)
	movq	%rdi, %rbx
	movq	%rdx, 32(%rsp)
	movq	%rsi, (%rdi)
	movq	8(%rcx), %rcx
	testq	%rcx, %rcx
	movq	%rcx, 8(%rdi)
	jne	.L171
	movq	$0, 24(%rdi)
.L159:
	movq	$0, 32(%rbx)
.L151:
	leaq	32(%rsp), %rsi
	movb	$0, (%rsp)
	movq	%rbx, %rdi
.LEHB41:
	call	_ZN5boost7numeric5ublas22indexing_matrix_assignINS1_13scalar_assignENS1_6matrixIfNS1_15basic_row_majorImlEENS1_15unbounded_arrayIfSaIfEEEEENS1_20matrix_matrix_binaryISA_SA_NS1_18matrix_matrix_prodISA_SA_fEEEEEEvRT0_RKNS1_17matrix_expressionIT1_EENS1_13row_major_tagE
.LEHE41:
	addq	$72, %rsp
	.cfi_remember_state
	.cfi_def_cfa_offset 24
	movq	%rbx, %rax
	popq	%rbx
	.cfi_def_cfa_offset 16
	popq	%rbp
	.cfi_def_cfa_offset 8
	ret
	.p2align 4,,10
	.p2align 3
.L171:
	.cfi_restore_state
	xorl	%edx, %edx
	movq	$-1, %rax
	divq	%rcx
	cmpq	%rax, %rsi
	jbe	.L172
	movl	$.LC1, %esi
	movl	$_ZSt4cerr, %edi
.LEHB42:
	call	_ZStlsISt11char_traitsIcEERSt13basic_ostreamIcT_ES5_PKc
	movl	$.LC7, %esi
	movq	%rax, %rdi
	call	_ZStlsISt11char_traitsIcEERSt13basic_ostreamIcT_ES5_PKc
	movl	$.LC3, %esi
	movq	%rax, %rdi
	call	_ZStlsISt11char_traitsIcEERSt13basic_ostreamIcT_ES5_PKc
	movl	$1362, %esi
	movq	%rax, %rdi
	call	_ZNSolsEi
	movl	$.LC4, %esi
	movq	%rax, %rdi
	call	_ZStlsISt11char_traitsIcEERSt13basic_ostreamIcT_ES5_PKc
	movq	%rax, %rdi
	call	_ZSt4endlIcSt11char_traitsIcEERSt13basic_ostreamIT_T0_ES6_
	movl	$.LC15, %esi
	movl	$_ZSt4cerr, %edi
	call	_ZStlsISt11char_traitsIcEERSt13basic_ostreamIcT_ES5_PKc
	movq	%rax, %rdi
	call	_ZSt4endlIcSt11char_traitsIcEERSt13basic_ostreamIT_T0_ES6_
	leaq	48(%rsp), %rdi
	movl	$.LC16, %esi
	call	_ZN5boost7numeric5ublas8bad_sizeC1EPKc
.LEHE42:
	movl	$16, %edi
	call	__cxa_allocate_exception
	leaq	48(%rsp), %rsi
	movq	%rax, %rdi
	movq	%rax, %rbx
.LEHB43:
	call	_ZNSt11logic_errorC2ERKS_
.LEHE43:
	movq	$_ZTVN5boost7numeric5ublas8bad_sizeE+16, (%rbx)
	movl	$_ZN5boost7numeric5ublas8bad_sizeD1Ev, %edx
	movl	$_ZTIN5boost7numeric5ublas8bad_sizeE, %esi
	movq	%rbx, %rdi
.LEHB44:
	call	__cxa_throw
.LEHE44:
	.p2align 4,,10
	.p2align 3
.L172:
	imulq	%rsi, %rcx
	testq	%rcx, %rcx
	movq	%rcx, 24(%rdi)
	je	.L159
	movabsq	$4611686018427387903, %rdi
	cmpq	%rdi, %rcx
	ja	.L173
	leaq	0(,%rcx,4), %rdi
.LEHB45:
	call	_Znwm
	movq	%rax, 32(%rbx)
	jmp	.L151
.L163:
	movq	%rax, %rbx
.L149:
	leaq	48(%rsp), %rdi
	movq	$_ZTVN5boost7numeric5ublas8bad_sizeE+16, 48(%rsp)
	call	_ZNSt12domain_errorD2Ev
	movq	%rbx, %rdi
	call	_Unwind_Resume
.LEHE45:
.L170:
	movl	$16, %edi
	call	__cxa_allocate_exception
	leaq	31(%rsp), %rdx
	leaq	48(%rsp), %rdi
	movl	$.LC14, %esi
	movq	%rax, %rbx
.LEHB46:
	call	_ZNSsC1EPKcRKSaIcE
.LEHE46:
	leaq	48(%rsp), %rsi
	movq	%rbx, %rdi
.LEHB47:
	call	_ZNSt11logic_errorC1ERKSs
.LEHE47:
	movq	48(%rsp), %r8
	leaq	32(%rsp), %rsi
	leaq	-24(%r8), %rdi
	call	_ZNSs4_Rep10_M_disposeERKSaIcE
	movl	$_ZNSt11logic_errorD1Ev, %edx
	movl	$_ZTISt11logic_error, %esi
	movq	%rbx, %rdi
.LEHB48:
	call	__cxa_throw
.L173:
	call	_ZSt17__throw_bad_allocv
.L161:
	movq	48(%rsp), %r9
	leaq	32(%rsp), %rsi
	movq	%rax, %rbp
	leaq	-24(%r9), %rdi
	call	_ZNSs4_Rep10_M_disposeERKSaIcE
.L156:
	movq	%rbx, %rdi
	call	__cxa_free_exception
.L169:
	movq	%rbp, %rdi
	call	_Unwind_Resume
.LEHE48:
.L160:
	movq	%rax, %rbp
	jmp	.L156
.L162:
	cmpq	$0, 24(%rbx)
	movq	%rax, %rbp
	je	.L169
	movq	32(%rbx), %rdi
	call	_ZdlPv
	jmp	.L169
.L164:
	movq	%rax, %rbp
	movq	%rbx, %rdi
	call	__cxa_free_exception
	movq	%rbp, %rbx
	jmp	.L149
	.cfi_endproc
.LFE5314:
	.section	.gcc_except_table,"a",@progbits
.LLSDA5314:
	.byte	0xff
	.byte	0xff
	.byte	0x1
	.uleb128 .LLSDACSE5314-.LLSDACSB5314
.LLSDACSB5314:
	.uleb128 .LEHB41-.LFB5314
	.uleb128 .LEHE41-.LEHB41
	.uleb128 .L162-.LFB5314
	.uleb128 0
	.uleb128 .LEHB42-.LFB5314
	.uleb128 .LEHE42-.LEHB42
	.uleb128 0
	.uleb128 0
	.uleb128 .LEHB43-.LFB5314
	.uleb128 .LEHE43-.LEHB43
	.uleb128 .L164-.LFB5314
	.uleb128 0
	.uleb128 .LEHB44-.LFB5314
	.uleb128 .LEHE44-.LEHB44
	.uleb128 .L163-.LFB5314
	.uleb128 0
	.uleb128 .LEHB45-.LFB5314
	.uleb128 .LEHE45-.LEHB45
	.uleb128 0
	.uleb128 0
	.uleb128 .LEHB46-.LFB5314
	.uleb128 .LEHE46-.LEHB46
	.uleb128 .L160-.LFB5314
	.uleb128 0
	.uleb128 .LEHB47-.LFB5314
	.uleb128 .LEHE47-.LEHB47
	.uleb128 .L161-.LFB5314
	.uleb128 0
	.uleb128 .LEHB48-.LFB5314
	.uleb128 .LEHE48-.LEHB48
	.uleb128 0
	.uleb128 0
.LLSDACSE5314:
	.text
	.size	_ZNK5jpvc414MatrixMultiply8multiplyERKN5boost7numeric5ublas6matrixIfNS3_15basic_row_majorImlEENS3_15unbounded_arrayIfSaIfEEEEESC_, .-_ZNK5jpvc414MatrixMultiply8multiplyERKN5boost7numeric5ublas6matrixIfNS3_15basic_row_majorImlEENS3_15unbounded_arrayIfSaIfEEEEESC_
	.section	.text.startup,"ax",@progbits
	.p2align 4,,15
	.type	_GLOBAL__sub_I__ZN5jpvc414MatrixMultiplyC2Ev, @function
_GLOBAL__sub_I__ZN5jpvc414MatrixMultiplyC2Ev:
.LFB5543:
	.cfi_startproc
	subq	$8, %rsp
	.cfi_def_cfa_offset 16
	movl	$_ZStL8__ioinit, %edi
	call	_ZNSt8ios_base4InitC1Ev
	movl	$__dso_handle, %edx
	movl	$_ZStL8__ioinit, %esi
	movl	$_ZNSt8ios_base4InitD1Ev, %edi
	addq	$8, %rsp
	.cfi_def_cfa_offset 8
	jmp	__cxa_atexit
	.cfi_endproc
.LFE5543:
	.size	_GLOBAL__sub_I__ZN5jpvc414MatrixMultiplyC2Ev, .-_GLOBAL__sub_I__ZN5jpvc414MatrixMultiplyC2Ev
	.section	.init_array,"aw"
	.align 8
	.quad	_GLOBAL__sub_I__ZN5jpvc414MatrixMultiplyC2Ev
	.weak	_ZTIN5boost7numeric5ublas12bad_argumentE
	.section	.rodata._ZTIN5boost7numeric5ublas12bad_argumentE,"aG",@progbits,_ZTIN5boost7numeric5ublas12bad_argumentE,comdat
	.align 16
	.type	_ZTIN5boost7numeric5ublas12bad_argumentE, @object
	.size	_ZTIN5boost7numeric5ublas12bad_argumentE, 24
_ZTIN5boost7numeric5ublas12bad_argumentE:
	.quad	_ZTVN10__cxxabiv120__si_class_type_infoE+16
	.quad	_ZTSN5boost7numeric5ublas12bad_argumentE
	.quad	_ZTISt16invalid_argument
	.weak	_ZTSN5boost7numeric5ublas12bad_argumentE
	.section	.rodata._ZTSN5boost7numeric5ublas12bad_argumentE,"aG",@progbits,_ZTSN5boost7numeric5ublas12bad_argumentE,comdat
	.align 32
	.type	_ZTSN5boost7numeric5ublas12bad_argumentE, @object
	.size	_ZTSN5boost7numeric5ublas12bad_argumentE, 37
_ZTSN5boost7numeric5ublas12bad_argumentE:
	.string	"N5boost7numeric5ublas12bad_argumentE"
	.weak	_ZTIN5boost7numeric5ublas8bad_sizeE
	.section	.rodata._ZTIN5boost7numeric5ublas8bad_sizeE,"aG",@progbits,_ZTIN5boost7numeric5ublas8bad_sizeE,comdat
	.align 16
	.type	_ZTIN5boost7numeric5ublas8bad_sizeE, @object
	.size	_ZTIN5boost7numeric5ublas8bad_sizeE, 24
_ZTIN5boost7numeric5ublas8bad_sizeE:
	.quad	_ZTVN10__cxxabiv120__si_class_type_infoE+16
	.quad	_ZTSN5boost7numeric5ublas8bad_sizeE
	.quad	_ZTISt12domain_error
	.weak	_ZTSN5boost7numeric5ublas8bad_sizeE
	.section	.rodata._ZTSN5boost7numeric5ublas8bad_sizeE,"aG",@progbits,_ZTSN5boost7numeric5ublas8bad_sizeE,comdat
	.align 32
	.type	_ZTSN5boost7numeric5ublas8bad_sizeE, @object
	.size	_ZTSN5boost7numeric5ublas8bad_sizeE, 32
_ZTSN5boost7numeric5ublas8bad_sizeE:
	.string	"N5boost7numeric5ublas8bad_sizeE"
	.weak	_ZTIN5boost7numeric5ublas9bad_indexE
	.section	.rodata._ZTIN5boost7numeric5ublas9bad_indexE,"aG",@progbits,_ZTIN5boost7numeric5ublas9bad_indexE,comdat
	.align 16
	.type	_ZTIN5boost7numeric5ublas9bad_indexE, @object
	.size	_ZTIN5boost7numeric5ublas9bad_indexE, 24
_ZTIN5boost7numeric5ublas9bad_indexE:
	.quad	_ZTVN10__cxxabiv120__si_class_type_infoE+16
	.quad	_ZTSN5boost7numeric5ublas9bad_indexE
	.quad	_ZTISt12out_of_range
	.weak	_ZTSN5boost7numeric5ublas9bad_indexE
	.section	.rodata._ZTSN5boost7numeric5ublas9bad_indexE,"aG",@progbits,_ZTSN5boost7numeric5ublas9bad_indexE,comdat
	.align 32
	.type	_ZTSN5boost7numeric5ublas9bad_indexE, @object
	.size	_ZTSN5boost7numeric5ublas9bad_indexE, 33
_ZTSN5boost7numeric5ublas9bad_indexE:
	.string	"N5boost7numeric5ublas9bad_indexE"
	.weak	_ZTVN5boost7numeric5ublas12bad_argumentE
	.section	.rodata._ZTVN5boost7numeric5ublas12bad_argumentE,"aG",@progbits,_ZTVN5boost7numeric5ublas12bad_argumentE,comdat
	.align 32
	.type	_ZTVN5boost7numeric5ublas12bad_argumentE, @object
	.size	_ZTVN5boost7numeric5ublas12bad_argumentE, 40
_ZTVN5boost7numeric5ublas12bad_argumentE:
	.quad	0
	.quad	_ZTIN5boost7numeric5ublas12bad_argumentE
	.quad	_ZN5boost7numeric5ublas12bad_argumentD1Ev
	.quad	_ZN5boost7numeric5ublas12bad_argumentD0Ev
	.quad	_ZNKSt11logic_error4whatEv
	.weak	_ZTVN5boost7numeric5ublas8bad_sizeE
	.section	.rodata._ZTVN5boost7numeric5ublas8bad_sizeE,"aG",@progbits,_ZTVN5boost7numeric5ublas8bad_sizeE,comdat
	.align 32
	.type	_ZTVN5boost7numeric5ublas8bad_sizeE, @object
	.size	_ZTVN5boost7numeric5ublas8bad_sizeE, 40
_ZTVN5boost7numeric5ublas8bad_sizeE:
	.quad	0
	.quad	_ZTIN5boost7numeric5ublas8bad_sizeE
	.quad	_ZN5boost7numeric5ublas8bad_sizeD1Ev
	.quad	_ZN5boost7numeric5ublas8bad_sizeD0Ev
	.quad	_ZNKSt11logic_error4whatEv
	.weak	_ZTVN5boost7numeric5ublas9bad_indexE
	.section	.rodata._ZTVN5boost7numeric5ublas9bad_indexE,"aG",@progbits,_ZTVN5boost7numeric5ublas9bad_indexE,comdat
	.align 32
	.type	_ZTVN5boost7numeric5ublas9bad_indexE, @object
	.size	_ZTVN5boost7numeric5ublas9bad_indexE, 40
_ZTVN5boost7numeric5ublas9bad_indexE:
	.quad	0
	.quad	_ZTIN5boost7numeric5ublas9bad_indexE
	.quad	_ZN5boost7numeric5ublas9bad_indexD1Ev
	.quad	_ZN5boost7numeric5ublas9bad_indexD0Ev
	.quad	_ZNKSt11logic_error4whatEv
	.local	_ZStL8__ioinit
	.comm	_ZStL8__ioinit,1,1
	.weakref	_ZL28__gthrw___pthread_key_createPjPFvPvE,__pthread_key_create
	.hidden	__dso_handle
	.ident	"GCC: (Ubuntu 4.8.4-2ubuntu1~14.04) 4.8.4"
	.section	.note.GNU-stack,"",@progbits
